target datalayout = "e-m:e-p270:32:32-p271:32:32-p272:64:64-i64:64-i128:128-f80:128-n8:16:32:64-S128"
target triple = "x86_64-pc-linux-gnu"

%"class.Luau::Variant" = type { i32, [4 x i8], [8 x i8] }

; Function Attrs: mustprogress nounwind uwtable
define linkonce_odr dso_local noundef ptr @_ZNK4Luau7VariantIJPKNS_4TypeEPKNS_11TypePackVarEEE6get_ifIS6_EEPKT_v(ptr noundef nonnull align 8 dereferenceable(16) %0) #4 comdat align 2 {
  %2 = alloca ptr, align 8
  %3 = alloca i32, align 4
  store ptr %0, ptr %2, align 8, !tbaa !8
  %4 = load ptr, ptr %2, align 8
  call void @llvm.lifetime.start.p0(i64 4, ptr %3) #5
  store i32 1, ptr %3, align 4, !tbaa !4
  %5 = getelementptr inbounds nuw %"class.Luau::Variant", ptr %4, i32 0, i32 0
  %6 = load i32, ptr %5, align 8, !tbaa !21
  %7 = icmp eq i32 1, %6
  br i1 %7, label %8, label %10

8:                                                ; preds = %1
  %9 = getelementptr inbounds nuw %"class.Luau::Variant", ptr %4, i32 0, i32 2
  br label %11

10:                                               ; preds = %1
  br label %11

11:                                               ; preds = %10, %8
  %12 = phi ptr [ %9, %8 ], [ null, %10 ]
  call void @llvm.lifetime.end.p0(i64 4, ptr %3) #5
  ret ptr %12
}

; Function Attrs: mustprogress nounwind uwtable
define linkonce_odr dso_local noundef ptr @_ZNK4Luau7VariantIJPKNS_4TypeEPKNS_11TypePackVarEEE6get_ifIS3_EEPKT_v(ptr noundef nonnull align 8 dereferenceable(16) %0) #4 comdat align 2 {
  %2 = alloca ptr, align 8
  %3 = alloca i32, align 4
  store ptr %0, ptr %2, align 8, !tbaa !8
  %4 = load ptr, ptr %2, align 8
  call void @llvm.lifetime.start.p0(i64 4, ptr %3) #5
  store i32 0, ptr %3, align 4, !tbaa !4
  %5 = getelementptr inbounds nuw %"class.Luau::Variant", ptr %4, i32 0, i32 0
  %6 = load i32, ptr %5, align 8, !tbaa !21
  %7 = icmp eq i32 0, %6
  br i1 %7, label %8, label %10

8:                                                ; preds = %1
  %9 = getelementptr inbounds nuw %"class.Luau::Variant", ptr %4, i32 0, i32 2
  br label %11

10:                                               ; preds = %1
  br label %11

11:                                               ; preds = %10, %8
  %12 = phi ptr [ %9, %8 ], [ null, %10 ]
  call void @llvm.lifetime.end.p0(i64 4, ptr %3) #5
  ret ptr %12
}

; Function Attrs: mustprogress uwtable
define linkonce_odr dso_local noundef ptr @_ZN4Luau3getIPKNS_11TypePackVarETnNSt9enable_ifIXsr10TypeOrPackE12is_part_of_vIT_EEbE4typeELb1EEEPKS5_RKNS_7VariantIJPKNS_4TypeES3_EEE(ptr noundef nonnull align 8 dereferenceable(16) %0) #2 comdat {
  %2 = alloca ptr, align 8
  store ptr %0, ptr %2, align 8, !tbaa !8
  %3 = load ptr, ptr %2, align 8, !tbaa !8
  %4 = call noundef ptr @_ZNK4Luau7VariantIJPKNS_4TypeEPKNS_11TypePackVarEEE6get_ifIS6_EEPKT_v(ptr noundef nonnull align 8 dereferenceable(16) %3)
  ret ptr %4
}

; Function Attrs: mustprogress uwtable
define linkonce_odr dso_local noundef ptr @_ZN4Luau3getIPKNS_4TypeETnNSt9enable_ifIXsr10TypeOrPackE12is_part_of_vIT_EEbE4typeELb1EEEPKS5_RKNS_7VariantIJS3_PKNS_11TypePackVarEEEE(ptr noundef nonnull align 8 dereferenceable(16) %0) #2 comdat {
  %2 = alloca ptr, align 8
  store ptr %0, ptr %2, align 8, !tbaa !8
  %3 = load ptr, ptr %2, align 8, !tbaa !8
  %4 = call noundef ptr @_ZNK4Luau7VariantIJPKNS_4TypeEPKNS_11TypePackVarEEE6get_ifIS3_EEPKT_v(ptr noundef nonnull align 8 dereferenceable(16) %3)
  ret ptr %4
}

; Function Attrs: mustprogress uwtable
define dso_local noundef ptr @_ZN4Luau3ptrENS_7VariantIJPKNS_4TypeEPKNS_11TypePackVarEEEE(ptr noundef %0) #2 {
  %2 = alloca ptr, align 8
  %3 = alloca ptr, align 8
  %4 = alloca ptr, align 8
  %5 = alloca i32, align 4
  %6 = alloca ptr, align 8
  store ptr %0, ptr %3, align 8, !tbaa !8
  call void @llvm.lifetime.start.p0(i64 8, ptr %4) #5
  %7 = call noundef ptr @_ZN4Luau3getIPKNS_4TypeETnNSt9enable_ifIXsr10TypeOrPackE12is_part_of_vIT_EEbE4typeELb1EEEPKS5_RKNS_7VariantIJS3_PKNS_11TypePackVarEEEE(ptr noundef nonnull align 8 dereferenceable(16) %0)
  store ptr %7, ptr %4, align 8, !tbaa !11
  %8 = load ptr, ptr %4, align 8, !tbaa !11
  %9 = icmp ne ptr %8, null
  br i1 %9, label %10, label %13

10:                                               ; preds = %1
  %11 = load ptr, ptr %4, align 8, !tbaa !11
  %12 = load ptr, ptr %11, align 8, !tbaa !14
  store ptr %12, ptr %2, align 8
  store i32 1, ptr %5, align 4
  br label %21

13:                                               ; preds = %1
  call void @llvm.lifetime.start.p0(i64 8, ptr %6) #5
  %14 = call noundef ptr @_ZN4Luau3getIPKNS_11TypePackVarETnNSt9enable_ifIXsr10TypeOrPackE12is_part_of_vIT_EEbE4typeELb1EEEPKS5_RKNS_7VariantIJPKNS_4TypeES3_EEE(ptr noundef nonnull align 8 dereferenceable(16) %0)
  store ptr %14, ptr %6, align 8, !tbaa !16
  %15 = load ptr, ptr %6, align 8, !tbaa !16
  %16 = icmp ne ptr %15, null
  br i1 %16, label %17, label %20

17:                                               ; preds = %13
  %18 = load ptr, ptr %6, align 8, !tbaa !16
  %19 = load ptr, ptr %18, align 8, !tbaa !18
  store ptr %19, ptr %2, align 8
  store i32 1, ptr %5, align 4
  call void @llvm.lifetime.end.p0(i64 8, ptr %6) #5
  br label %21

20:                                               ; preds = %13
  unreachable

21:                                               ; preds = %17, %10
  call void @llvm.lifetime.end.p0(i64 8, ptr %4) #5
  %22 = load ptr, ptr %2, align 8
  ret ptr %22
}