; Function Attrs: mustprogress nofree norecurse nosync nounwind willreturn memory(argmem: read, inaccessiblemem: write) uwtable
define dso_local noundef ptr @_ZN4Luau3ptrENS_7VariantIJPKNS_4TypeEPKNS_11TypePackVarEEEE(ptr noundef readonly captures(none) %0) local_unnamed_addr #2 {
  %2 = load i32, ptr %0, align 8, !tbaa !8
  %.not = icmp eq i32 %2, 0
  br i1 %.not, label %5, label %3

3:                                                ; preds = %1
  %4 = icmp eq i32 %2, 1
  tail call void @llvm.assume(i1 %4)
  br label %5

5:                                                ; preds = %1, %3
  %6 = getelementptr inbounds nuw i8, ptr %0, i64 8
  %.0 = load ptr, ptr %6, align 8, !tbaa !10
  ret ptr %.0
}